; Function Attrs: mustprogress uwtable
define hidden void @_ZN4ncnn11HardSigmoidC2Ev(ptr noundef nonnull align 8 dereferenceable(224) %0) unnamed_addr #2 align 2 {
  tail call void @_ZN4ncnn5LayerC2Ev(ptr noundef nonnull align 8 dereferenceable(208) %0)
  store ptr getelementptr inbounds nuw inrange(-16, 80) (i8, ptr @_ZTVN4ncnn11HardSigmoidE, i64 16), ptr %0, align 8, !tbaa !38
  %2 = getelementptr inbounds nuw i8, ptr %0, i64 8
  store i8 1, ptr %2, align 8, !tbaa !40
  %3 = getelementptr inbounds nuw i8, ptr %0, i64 9
  store i8 1, ptr %3, align 1, !tbaa !41
  ret void
}